target datalayout = "e-m:e-p270:32:32-p271:32:32-p272:64:64-i64:64-i128:128-f80:128-n8:16:32:64-S128"
target triple = "x86_64-unknown-linux-gnu"

%"struct.node::quic::TLSContext::Options" = type { %"class.node::MemoryRetainer", %"class.std::__cxx11::basic_string", %"class.std::__cxx11::basic_string", i8, i8, i8, i8, i8, %"class.std::__cxx11::basic_string", %"class.std::__cxx11::basic_string", %"class.std::__cxx11::basic_string", %"class.std::vector", %"class.std::vector.3", %"class.std::vector.3", %"class.std::vector.3" }
%"class.node::MemoryRetainer" = type { ptr }
%"class.std::__cxx11::basic_string" = type { %"struct.std::__cxx11::basic_string<char>::_Alloc_hider", i64, %union.anon }
%"struct.std::__cxx11::basic_string<char>::_Alloc_hider" = type { ptr }
%union.anon = type { i64, [8 x i8] }
%"class.std::vector" = type { %"struct.std::_Vector_base" }
%"struct.std::_Vector_base" = type { %"struct.std::_Vector_base<std::shared_ptr<node::crypto::KeyObjectData>, std::allocator<std::shared_ptr<node::crypto::KeyObjectData>>>::_Vector_impl" }
%"struct.std::_Vector_base<std::shared_ptr<node::crypto::KeyObjectData>, std::allocator<std::shared_ptr<node::crypto::KeyObjectData>>>::_Vector_impl" = type { %"struct.std::_Vector_base<std::shared_ptr<node::crypto::KeyObjectData>, std::allocator<std::shared_ptr<node::crypto::KeyObjectData>>>::_Vector_impl_data" }
%"struct.std::_Vector_base<std::shared_ptr<node::crypto::KeyObjectData>, std::allocator<std::shared_ptr<node::crypto::KeyObjectData>>>::_Vector_impl_data" = type { ptr, ptr, ptr }
%"class.std::vector.3" = type { %"struct.std::_Vector_base.4" }
%"struct.std::_Vector_base.4" = type { %"struct.std::_Vector_base<node::quic::Store, std::allocator<node::quic::Store>>::_Vector_impl" }
%"struct.std::_Vector_base<node::quic::Store, std::allocator<node::quic::Store>>::_Vector_impl" = type { %"struct.std::_Vector_base<node::quic::Store, std::allocator<node::quic::Store>>::_Vector_impl_data" }
%"struct.std::_Vector_base<node::quic::Store, std::allocator<node::quic::Store>>::_Vector_impl_data" = type { ptr, ptr, ptr }
%"class.node::quic::TLSContext" = type <{ %"class.node::MemoryRetainer", %struct.ngtcp2_crypto_conn_ref, i32, [4 x i8], ptr, ptr, %"struct.node::quic::TLSContext::Options", %"class.node::BaseObjectPtrImpl", %"class.std::unique_ptr", %"class.std::unique_ptr.11", i8, i8, [6 x i8] }>
%struct.ngtcp2_crypto_conn_ref = type { ptr, ptr }
%"class.node::BaseObjectPtrImpl" = type { %union.anon.8 }
%union.anon.8 = type { ptr }
%"class.std::unique_ptr" = type { %"struct.std::__uniq_ptr_data" }
%"struct.std::__uniq_ptr_data" = type { %"class.std::__uniq_ptr_impl" }
%"class.std::__uniq_ptr_impl" = type { %"class.std::tuple" }
%"class.std::tuple" = type { %"struct.std::_Tuple_impl" }
%"struct.std::_Tuple_impl" = type { %"struct.std::_Head_base.10" }
%"struct.std::_Head_base.10" = type { ptr }
%"class.std::unique_ptr.11" = type { %"struct.std::__uniq_ptr_data.12" }
%"struct.std::__uniq_ptr_data.12" = type { %"class.std::__uniq_ptr_impl.13" }
%"class.std::__uniq_ptr_impl.13" = type { %"class.std::tuple.14" }
%"class.std::tuple.14" = type { %"struct.std::_Tuple_impl.15" }
%"struct.std::_Tuple_impl.15" = type { %"struct.std::_Head_base.18" }
%"struct.std::_Head_base.18" = type { ptr }
%"class.v8::IndirectHandleBase" = type { ptr }
%"class.v8::MaybeLocal" = type { %"class.v8::Local" }
%"class.v8::Local" = type { %"class.v8::LocalBase" }
%"class.v8::LocalBase" = type { %"class.v8::IndirectHandleBase" }

; Function Attrs: mustprogress nounwind uwtable
define dso_local ptr @_ZNK4node4quic10TLSContext9peer_certEPNS_11EnvironmentE(ptr noundef nonnull align 8 dereferenceable(352) %this, ptr noundef %env) #5 align 2 {
entry:
  %retval = alloca %"class.v8::MaybeLocal", align 8
  %this.addr = alloca ptr, align 8
  %env.addr = alloca ptr, align 8
  %flag = alloca i32, align 4
  store ptr %this, ptr %this.addr, align 8
  store ptr %env, ptr %env.addr, align 8
  %this1 = load ptr, ptr %this.addr, align 8
  %side_ = getelementptr inbounds %"class.node::quic::TLSContext", ptr %this1, i32 0, i32 2
  %0 = load i32, ptr %side_, align 8
  %cmp = icmp eq i32 %0, 1
  %cond = select i1 %cmp, i32 1, i32 0
  store i32 %cond, ptr %flag, align 4
  %1 = load ptr, ptr %env.addr, align 8
  %ssl_ = getelementptr inbounds %"class.node::quic::TLSContext", ptr %this1, i32 0, i32 8
  %2 = load i32, ptr %flag, align 4
  %call = call ptr @_ZN4node6crypto15X509Certificate11GetPeerCertEPNS_11EnvironmentERKSt10unique_ptrI6ssl_stNS_15FunctionDeleterIS5_XadL_Z8SSL_freeEEEEENS1_22GetPeerCertificateFlagE(ptr noundef %1, ptr noundef nonnull align 8 dereferenceable(8) %ssl_, i32 noundef %2)
  %coerce.dive = getelementptr inbounds %"class.v8::MaybeLocal", ptr %retval, i32 0, i32 0
  %coerce.dive2 = getelementptr inbounds %"class.v8::Local", ptr %coerce.dive, i32 0, i32 0
  %coerce.dive3 = getelementptr inbounds %"class.v8::LocalBase", ptr %coerce.dive2, i32 0, i32 0
  %coerce.dive4 = getelementptr inbounds %"class.v8::IndirectHandleBase", ptr %coerce.dive3, i32 0, i32 0
  store ptr %call, ptr %coerce.dive4, align 8
  %coerce.dive5 = getelementptr inbounds %"class.v8::MaybeLocal", ptr %retval, i32 0, i32 0
  %coerce.dive6 = getelementptr inbounds %"class.v8::Local", ptr %coerce.dive5, i32 0, i32 0
  %coerce.dive7 = getelementptr inbounds %"class.v8::LocalBase", ptr %coerce.dive6, i32 0, i32 0
  %coerce.dive8 = getelementptr inbounds %"class.v8::IndirectHandleBase", ptr %coerce.dive7, i32 0, i32 0
  %3 = load ptr, ptr %coerce.dive8, align 8
  ret ptr %3
}