; Function Attrs: mustprogress nounwind uwtable
define dso_local ptr @_ZNK4node4quic10TLSContext9peer_certEPNS_11EnvironmentE(ptr noundef nonnull align 8 dereferenceable(352) %this, ptr noundef %env) local_unnamed_addr #4 align 2 {
entry:
  %side_ = getelementptr inbounds i8, ptr %this, i64 24
  %0 = load i32, ptr %side_, align 8
  %cmp = icmp eq i32 %0, 1
  %cond = zext i1 %cmp to i32
  %ssl_ = getelementptr inbounds i8, ptr %this, i64 328
  %call = tail call ptr @_ZN4node6crypto15X509Certificate11GetPeerCertEPNS_11EnvironmentERKSt10unique_ptrI6ssl_stNS_15FunctionDeleterIS5_XadL_Z8SSL_freeEEEEENS1_22GetPeerCertificateFlagE(ptr noundef %env, ptr noundef nonnull align 8 dereferenceable(8) %ssl_, i32 noundef %cond) #18
  ret ptr %call
}